; Function Attrs: nounwind uwtable
define hidden void @CRYPTO_free_ex_data(ptr noundef %0, ptr noundef %1, ptr noundef %2) local_unnamed_addr #0 {
  %4 = load ptr, ptr %2, align 8, !tbaa !22
  %5 = icmp eq ptr %4, null
  br i1 %5, label %47, label %6

6:                                                ; preds = %3
  tail call void @CRYPTO_STATIC_MUTEX_lock_read(ptr noundef %0) #8
  %7 = getelementptr inbounds nuw i8, ptr %0, i64 56
  %8 = load ptr, ptr %7, align 8, !tbaa !15
  %9 = tail call i64 @sk_num(ptr noundef %8) #8
  %.not.i = icmp eq i64 %9, 0
  br i1 %.not.i, label %.critedge.i, label %10

10:                                               ; preds = %6
  %11 = load ptr, ptr %7, align 8, !tbaa !15
  %12 = tail call ptr @sk_dup(ptr noundef %11) #8
  tail call void @CRYPTO_STATIC_MUTEX_unlock(ptr noundef nonnull %0) #8
  %13 = icmp eq ptr %12, null
  br i1 %13, label %get_func_pointers.exit.thread, label %get_func_pointers.exit

get_func_pointers.exit.thread:                    ; preds = %10
  tail call void @ERR_put_error(i32 noundef 14, i32 noundef 0, i32 noundef 65, ptr noundef nonnull @.str, i32 noundef 223) #8
  br label %47

.critedge.i:                                      ; preds = %6
  tail call void @CRYPTO_STATIC_MUTEX_unlock(ptr noundef nonnull %0) #8
  br label %get_func_pointers.exit

get_func_pointers.exit:                           ; preds = %10, %.critedge.i
  %.024 = phi ptr [ null, %.critedge.i ], [ %12, %10 ]
  %14 = tail call i64 @sk_num(ptr noundef %.024) #8
  %.not = icmp eq i64 %14, 0
  br i1 %.not, label %._crit_edge, label %.lr.ph

.lr.ph:                                           ; preds = %get_func_pointers.exit
  %15 = getelementptr inbounds nuw i8, ptr %0, i64 64
  br label %16

16:                                               ; preds = %.lr.ph, %42
  %.028 = phi i64 [ 0, %.lr.ph ], [ %43, %42 ]
  %17 = tail call ptr @sk_value(ptr noundef %.024, i64 noundef %.028) #8
  %18 = getelementptr inbounds nuw i8, ptr %17, i64 16
  %19 = load ptr, ptr %18, align 8, !tbaa !14
  %.not18 = icmp eq ptr %19, null
  br i1 %.not18, label %42, label %20

20:                                               ; preds = %16
  %21 = load i8, ptr %15, align 8, !tbaa !19
  %22 = zext i8 %21 to i64
  %23 = add i64 %.028, %22
  %24 = load ptr, ptr %2, align 8, !tbaa !22
  %25 = icmp eq ptr %24, null
  %26 = and i64 %23, 2147483648
  %27 = icmp ne i64 %26, 0
  %or.cond.i = or i1 %25, %27
  br i1 %or.cond.i, label %CRYPTO_get_ex_data.exit, label %28

28:                                               ; preds = %20
  %29 = and i64 %23, 2147483647
  %30 = tail call i64 @sk_num(ptr noundef nonnull %24) #8
  %.not.i19 = icmp ugt i64 %30, %29
  br i1 %.not.i19, label %31, label %CRYPTO_get_ex_data.exit

31:                                               ; preds = %28
  %32 = load ptr, ptr %2, align 8, !tbaa !22
  %33 = tail call ptr @sk_value(ptr noundef %32, i64 noundef %29) #8
  br label %CRYPTO_get_ex_data.exit

CRYPTO_get_ex_data.exit:                          ; preds = %20, %28, %31
  %.0.i20 = phi ptr [ %33, %31 ], [ null, %28 ], [ null, %20 ]
  %34 = load ptr, ptr %18, align 8, !tbaa !14
  %35 = load i8, ptr %15, align 8, !tbaa !19
  %36 = zext i8 %35 to i64
  %37 = add i64 %.028, %36
  %38 = trunc i64 %37 to i32
  %39 = load i64, ptr %17, align 8, !tbaa !6
  %40 = getelementptr inbounds nuw i8, ptr %17, i64 8
  %41 = load ptr, ptr %40, align 8, !tbaa !12
  tail call void %34(ptr noundef %1, ptr noundef %.0.i20, ptr noundef nonnull %2, i32 noundef %38, i64 noundef %39, ptr noundef %41) #8
  br label %42

42:                                               ; preds = %CRYPTO_get_ex_data.exit, %16
  %43 = add nuw i64 %.028, 1
  %44 = tail call i64 @sk_num(ptr noundef %.024) #8
  %45 = icmp ult i64 %43, %44
  br i1 %45, label %16, label %._crit_edge, !llvm.loop !29

._crit_edge:                                      ; preds = %42, %get_func_pointers.exit
  tail call void @sk_free(ptr noundef %.024) #8
  %46 = load ptr, ptr %2, align 8, !tbaa !22
  tail call void @sk_free(ptr noundef %46) #8
  store ptr null, ptr %2, align 8, !tbaa !22
  br label %47

47:                                               ; preds = %._crit_edge, %get_func_pointers.exit.thread, %3
  ret void
}